; Function Attrs: nofree norecurse nosync nounwind memory(argmem: readwrite) uwtable
define dso_local void @KeccakP1600_ExtractBytes(ptr noundef readonly captures(none) %0, ptr noundef writeonly captures(none) %1, i32 noundef %2, i32 noundef %3) local_unnamed_addr #5 {
  %5 = alloca [1 x i64], align 8
  %.sroa.0 = alloca i64, align 8
  %6 = icmp eq i32 %2, 0
  br i1 %6, label %7, label %17

7:                                                ; preds = %4
  %8 = lshr i32 %3, 3
  %9 = and i32 %3, -8
  %10 = zext i32 %9 to i64
  tail call void @llvm.memcpy.p0.p0.i64(ptr align 1 %1, ptr readonly align 1 %0, i64 %10, i1 false)
  %11 = getelementptr inbounds nuw i8, ptr %1, i64 %10
  %12 = and i32 %3, 7
  %13 = zext nneg i32 %8 to i64
  %14 = getelementptr inbounds nuw i64, ptr %0, i64 %13
  %15 = load i64, ptr %14, align 8
  call void @llvm.lifetime.start.p0(i64 8, ptr nonnull %.sroa.0)
  store i64 %15, ptr %.sroa.0, align 8
  %16 = zext nneg i32 %12 to i64
  call void @llvm.memcpy.p0.p0.i64(ptr align 1 %11, ptr nonnull align 8 %.sroa.0, i64 %16, i1 false)
  call void @llvm.lifetime.end.p0(i64 8, ptr nonnull %.sroa.0)
  br label %.loopexit

17:                                               ; preds = %4
  %.not33 = icmp eq i32 %3, 0
  br i1 %.not33, label %.loopexit, label %.lr.ph.preheader

.lr.ph.preheader:                                 ; preds = %17
  %18 = and i32 %2, 7
  %19 = lshr i32 %2, 3
  br label %.lr.ph

.lr.ph:                                           ; preds = %.lr.ph.preheader, %.lr.ph
  %.02737 = phi ptr [ %29, %.lr.ph ], [ %1, %.lr.ph.preheader ]
  %.02836 = phi i32 [ 0, %.lr.ph ], [ %18, %.lr.ph.preheader ]
  %.02935 = phi i32 [ %28, %.lr.ph ], [ %19, %.lr.ph.preheader ]
  %.03034 = phi i32 [ %27, %.lr.ph ], [ %3, %.lr.ph.preheader ]
  %20 = sub nuw nsw i32 8, %.02836
  %spec.select = tail call i32 @llvm.umin.i32(i32 %20, i32 %.03034)
  %21 = zext i32 %.02935 to i64
  %22 = getelementptr inbounds nuw i64, ptr %0, i64 %21
  %23 = load i64, ptr %22, align 8
  call void @llvm.lifetime.start.p0(i64 8, ptr nonnull %5) #7
  store i64 %23, ptr %5, align 8
  %24 = zext nneg i32 %.02836 to i64
  %25 = getelementptr inbounds nuw i8, ptr %5, i64 %24
  %26 = zext nneg i32 %spec.select to i64
  call void @llvm.memcpy.p0.p0.i64(ptr noundef nonnull align 1 dereferenceable(1) %.02737, ptr noundef nonnull align 1 dereferenceable(1) %25, i64 %26, i1 false)
  call void @llvm.lifetime.end.p0(i64 8, ptr nonnull %5) #7
  %27 = sub i32 %.03034, %spec.select
  %28 = add i32 %.02935, 1
  %29 = getelementptr inbounds nuw i8, ptr %.02737, i64 %26
  %.not = icmp eq i32 %27, 0
  br i1 %.not, label %.loopexit, label %.lr.ph, !llvm.loop !16

.loopexit:                                        ; preds = %.lr.ph, %17, %7
  ret void
}